; Function Attrs: mustprogress uwtable
define dso_local void @_ZN4Luau7CodeGen21forgPrepXnextFallbackEP9lua_StateP10lua_TValuei(ptr noundef %0, ptr noundef %1, i32 noundef %2) local_unnamed_addr #2 {
  %4 = getelementptr inbounds i8, ptr %1, i64 12
  %5 = load i32, ptr %4, align 4
  %6 = icmp eq i32 %5, 7
  br i1 %6, label %20, label %7

7:                                                ; preds = %3
  %8 = getelementptr inbounds i8, ptr %0, i64 32
  %9 = load ptr, ptr %8, align 8
  %10 = getelementptr inbounds i8, ptr %9, i64 8
  %11 = load ptr, ptr %10, align 8
  %12 = load ptr, ptr %11, align 8
  %13 = getelementptr inbounds i8, ptr %12, i64 24
  %14 = load ptr, ptr %13, align 8
  %15 = getelementptr inbounds i8, ptr %14, i64 16
  %16 = load ptr, ptr %15, align 8
  %17 = sext i32 %2 to i64
  %18 = getelementptr inbounds i32, ptr %16, i64 %17
  %19 = getelementptr inbounds i8, ptr %9, i64 24
  store ptr %18, ptr %19, align 8
  tail call void @_Z15luaG_typeerrorLP9lua_StatePK10lua_TValuePKc(ptr noundef %0, ptr noundef nonnull %1, ptr noundef nonnull @.str) #7
  unreachable

20:                                               ; preds = %3
  ret void
}